; Function Attrs: mustprogress nounwind uwtable
define void @_ZN3gmx19LocalAtomSetManagerD2Ev(ptr noundef nonnull align 8 captures(none) dereferenceable(8) %0) unnamed_addr #3 align 2 personality ptr @__gxx_personality_v0 {
  %2 = load ptr, ptr %0, align 8
  %.not.i = icmp eq ptr %2, null
  br i1 %.not.i, label %_ZNSt10unique_ptrIN3gmx19LocalAtomSetManager4ImplESt14default_deleteIS2_EED2Ev.exit, label %_ZNKSt14default_deleteIN3gmx19LocalAtomSetManager4ImplEEclEPS2_.exit.i

_ZNKSt14default_deleteIN3gmx19LocalAtomSetManager4ImplEEclEPS2_.exit.i: ; preds = %1
  tail call void @_ZNSt6vectorISt10unique_ptrIN3gmx8internal16LocalAtomSetDataESt14default_deleteIS3_EESaIS6_EED2Ev(ptr noundef nonnull align 8 dereferenceable(24) %2) #12
  tail call void @_ZdlPv(ptr noundef nonnull %2) #13
  br label %_ZNSt10unique_ptrIN3gmx19LocalAtomSetManager4ImplESt14default_deleteIS2_EED2Ev.exit

_ZNSt10unique_ptrIN3gmx19LocalAtomSetManager4ImplESt14default_deleteIS2_EED2Ev.exit: ; preds = %1, %_ZNKSt14default_deleteIN3gmx19LocalAtomSetManager4ImplEEclEPS2_.exit.i
  store ptr null, ptr %0, align 8
  ret void
}